; Function Attrs: mustprogress uwtable
define void @ucase_addPropertyStarts_77(ptr noundef %0, ptr noundef readonly captures(none) %1) local_unnamed_addr #0 {
  %3 = load i32, ptr %1, align 4, !tbaa !3
  %4 = icmp slt i32 %3, 1
  br i1 %4, label %5, label %6

5:                                                ; preds = %2
  tail call void @utrie2_enum_77(ptr noundef nonnull getelementptr inbounds nuw (i8, ptr @_ZL21ucase_props_singleton, i64 32), ptr noundef null, ptr noundef nonnull @_ZL24_enumPropertyStartsRangePKviij, ptr noundef %0)
  br label %6

6:                                                ; preds = %2, %5
  ret void
}